; ModuleID = '54/467.c'
source_filename = "54/467.c"
target datalayout = "e-m:e-p270:32:32-p271:32:32-p272:64:64-i64:64-f80:128-n8:16:32:64-S128"
target triple = "x86_64-pc-linux-gnu"

@.str = private unnamed_addr constant [8 x i8] c"%lf %lf\00", align 1
@.str.1 = private unnamed_addr constant [6 x i8] c"%.0lf\00", align 1

; Function Attrs: noinline nounwind uwtable
define dso_local void @main() #0 {
  %1 = alloca double, align 8
  %2 = alloca double, align 8
  %3 = alloca double, align 8
  %4 = alloca double, align 8
  %5 = alloca double, align 8
  %6 = alloca double, align 8
  %7 = alloca double, align 8
  %8 = call i32 (i8*, ...) @__isoc99_scanf(i8* getelementptr inbounds ([8 x i8], [8 x i8]* @.str, i64 0, i64 0), double* %1, double* %2)
  store double 1.000000e+00, double* %6, align 8
  br label %9

9:                                                ; preds = %56, %0
  store double 1.000000e+00, double* %3, align 8
  store double 0.000000e+00, double* %7, align 8
  %10 = load double, double* %6, align 8
  %11 = load double, double* %1, align 8
  %12 = fmul double %10, %11
  %13 = load double, double* %2, align 8
  %14 = fadd double %12, %13
  store double %14, double* %4, align 8
  br label %15

15:                                               ; preds = %40, %9
  %16 = load double, double* %3, align 8
  %17 = load double, double* %1, align 8
  %18 = fsub double %17, 1.000000e+00
  %19 = fcmp ole double %16, %18
  br i1 %19, label %20, label %43

20:                                               ; preds = %15
  %21 = load double, double* %4, align 8
  %22 = load double, double* %4, align 8
  %23 = fptosi double %22 to i32
  %24 = sitofp i32 %23 to double
  %25 = fsub double %21, %24
  store double %25, double* %5, align 8
  %26 = load double, double* %5, align 8
  %27 = fcmp une double %26, 0.000000e+00
  br i1 %27, label %28, label %31

28:                                               ; preds = %20
  %29 = load double, double* %7, align 8
  %30 = fadd double %29, 1.000000e+00
  store double %30, double* %7, align 8
  br label %31

31:                                               ; preds = %28, %20
  %32 = load double, double* %4, align 8
  %33 = load double, double* %1, align 8
  %34 = fmul double %32, %33
  %35 = load double, double* %1, align 8
  %36 = fsub double %35, 1.000000e+00
  %37 = fdiv double %34, %36
  %38 = load double, double* %2, align 8
  %39 = fadd double %37, %38
  store double %39, double* %4, align 8
  br label %40

40:                                               ; preds = %31
  %41 = load double, double* %3, align 8
  %42 = fadd double %41, 1.000000e+00
  store double %42, double* %3, align 8
  br label %15

43:                                               ; preds = %15
  %44 = load double, double* %4, align 8
  %45 = load double, double* %4, align 8
  %46 = fptosi double %45 to i32
  %47 = sitofp i32 %46 to double
  %48 = fsub double %44, %47
  store double %48, double* %5, align 8
  %49 = load double, double* %5, align 8
  %50 = fcmp oeq double %49, 0.000000e+00
  br i1 %50, label %51, label %55

51:                                               ; preds = %43
  %52 = load double, double* %7, align 8
  %53 = fcmp oeq double %52, 0.000000e+00
  br i1 %53, label %54, label %55

54:                                               ; preds = %51
  br label %59

55:                                               ; preds = %51, %43
  br label %56

56:                                               ; preds = %55
  %57 = load double, double* %6, align 8
  %58 = fadd double %57, 1.000000e+00
  store double %58, double* %6, align 8
  br label %9

59:                                               ; preds = %54
  %60 = load double, double* %4, align 8
  %61 = call i32 (i8*, ...) @printf(i8* getelementptr inbounds ([6 x i8], [6 x i8]* @.str.1, i64 0, i64 0), double %60)
  ret void
}

declare dso_local i32 @__isoc99_scanf(i8*, ...) #1

declare dso_local i32 @printf(i8*, ...) #1


!llvm.module.flags = !{!0}
!llvm.ident = !{!1}

!0 = !{i32 1, !"wchar_size", i32 4}
!1 = !{!"clang version 10.0.0-4ubuntu1 "}
